; Function Attrs: mustprogress nounwind uwtable
define dso_local noundef zeroext i1 @_ZN4llvm3sys4path13has_root_pathERKNS_5TwineENS1_5StyleE(ptr noundef nonnull align 8 dereferenceable(34) %0, i32 noundef %1) local_unnamed_addr #0 {
  %3 = alloca %"class.llvm::SmallString.10", align 8
  %4 = getelementptr inbounds i8, ptr %3, i64 24
  call void @_ZN4llvm15SmallVectorBaseImEC2EPvm(ptr noundef nonnull align 8 dereferenceable(24) %3, ptr noundef nonnull %4, i64 noundef 128) #30
  %5 = call { ptr, i64 } @_ZNK4llvm5Twine11toStringRefERNS_15SmallVectorImplIcEE(ptr noundef nonnull align 8 dereferenceable(34) %0, ptr noundef nonnull align 8 dereferenceable(24) %3)
  %6 = extractvalue { ptr, i64 } %5, 0
  %7 = extractvalue { ptr, i64 } %5, 1
  %8 = call { ptr, i64 } @_ZN4llvm3sys4path9root_pathENS_9StringRefENS1_5StyleE(ptr %6, i64 %7, i32 noundef %1)
  %9 = call noundef i64 @_ZNK4llvm15SmallVectorBaseImE4sizeEv(ptr noundef nonnull align 8 dereferenceable(24) %3) #30
  %10 = load ptr, ptr %3, align 8
  %11 = icmp eq ptr %10, %4
  br i1 %11, label %_ZN4llvm11SmallStringILj128EED2Ev.exit, label %12

12:                                               ; preds = %2
  call void @free(ptr noundef %10) #30
  br label %_ZN4llvm11SmallStringILj128EED2Ev.exit

_ZN4llvm11SmallStringILj128EED2Ev.exit:           ; preds = %2, %12
  %13 = extractvalue { ptr, i64 } %8, 1
  %14 = icmp ne i64 %13, 0
  ret i1 %14
}